; ModuleID = '26/603.c'
source_filename = "26/603.c"
target datalayout = "e-m:e-p270:32:32-p271:32:32-p272:64:64-i64:64-f80:128-n8:16:32:64-S128"
target triple = "x86_64-pc-linux-gnu"

; Function Attrs: noinline nounwind uwtable
define dso_local void @main() #0 {
  %1 = alloca i32, align 4
  %2 = alloca i32, align 4
  %3 = alloca [101 x i8], align 16
  store i32 0, i32* %1, align 4
  br label %4

4:                                                ; preds = %18, %0
  %5 = call i32 @getchar()
  %6 = trunc i32 %5 to i8
  %7 = load i32, i32* %1, align 4
  %8 = sext i32 %7 to i64
  %9 = getelementptr inbounds [101 x i8], [101 x i8]* %3, i64 0, i64 %8
  store i8 %6, i8* %9, align 1
  %10 = load i32, i32* %1, align 4
  %11 = sext i32 %10 to i64
  %12 = getelementptr inbounds [101 x i8], [101 x i8]* %3, i64 0, i64 %11
  %13 = load i8, i8* %12, align 1
  %14 = sext i8 %13 to i32
  %15 = icmp eq i32 %14, 10
  br i1 %15, label %16, label %17

16:                                               ; preds = %4
  br label %21

17:                                               ; preds = %4
  br label %18

18:                                               ; preds = %17
  %19 = load i32, i32* %1, align 4
  %20 = add nsw i32 %19, 1
  store i32 %20, i32* %1, align 4
  br label %4

21:                                               ; preds = %16
  %22 = load i32, i32* %1, align 4
  store i32 %22, i32* %2, align 4
  store i32 0, i32* %1, align 4
  br label %23

23:                                               ; preds = %68, %21
  %24 = load i32, i32* %1, align 4
  %25 = load i32, i32* %2, align 4
  %26 = icmp slt i32 %24, %25
  br i1 %26, label %27, label %71

27:                                               ; preds = %23
  %28 = load i32, i32* %1, align 4
  %29 = icmp eq i32 %28, 0
  br i1 %29, label %30, label %37

30:                                               ; preds = %27
  %31 = load i32, i32* %1, align 4
  %32 = sext i32 %31 to i64
  %33 = getelementptr inbounds [101 x i8], [101 x i8]* %3, i64 0, i64 %32
  %34 = load i8, i8* %33, align 1
  %35 = sext i8 %34 to i32
  %36 = call i32 @putchar(i32 %35)
  br label %67

37:                                               ; preds = %27
  %38 = load i32, i32* %1, align 4
  %39 = sext i32 %38 to i64
  %40 = getelementptr inbounds [101 x i8], [101 x i8]* %3, i64 0, i64 %39
  %41 = load i8, i8* %40, align 1
  %42 = sext i8 %41 to i32
  %43 = icmp eq i32 %42, 32
  br i1 %43, label %44, label %52

44:                                               ; preds = %37
  %45 = load i32, i32* %1, align 4
  %46 = sub nsw i32 %45, 1
  %47 = sext i32 %46 to i64
  %48 = getelementptr inbounds [101 x i8], [101 x i8]* %3, i64 0, i64 %47
  %49 = load i8, i8* %48, align 1
  %50 = sext i8 %49 to i32
  %51 = icmp ne i32 %50, 32
  br i1 %51, label %59, label %52

52:                                               ; preds = %44, %37
  %53 = load i32, i32* %1, align 4
  %54 = sext i32 %53 to i64
  %55 = getelementptr inbounds [101 x i8], [101 x i8]* %3, i64 0, i64 %54
  %56 = load i8, i8* %55, align 1
  %57 = sext i8 %56 to i32
  %58 = icmp ne i32 %57, 32
  br i1 %58, label %59, label %66

59:                                               ; preds = %52, %44
  %60 = load i32, i32* %1, align 4
  %61 = sext i32 %60 to i64
  %62 = getelementptr inbounds [101 x i8], [101 x i8]* %3, i64 0, i64 %61
  %63 = load i8, i8* %62, align 1
  %64 = sext i8 %63 to i32
  %65 = call i32 @putchar(i32 %64)
  br label %66

66:                                               ; preds = %59, %52
  br label %67

67:                                               ; preds = %66, %30
  br label %68

68:                                               ; preds = %67
  %69 = load i32, i32* %1, align 4
  %70 = add nsw i32 %69, 1
  store i32 %70, i32* %1, align 4
  br label %23

71:                                               ; preds = %23
  ret void
}

declare dso_local i32 @getchar() #1

declare dso_local i32 @putchar(i32) #1


!llvm.module.flags = !{!0}
!llvm.ident = !{!1}

!0 = !{i32 1, !"wchar_size", i32 4}
!1 = !{!"clang version 10.0.0-4ubuntu1 "}
